; Function Attrs: nounwind uwtable
define internal fastcc void @_draw_boxes(ptr noundef %0, ptr noundef %1, ptr noundef %2) unnamed_addr #3 {
  %4 = alloca [4 x %struct.point_t], align 16
  %5 = alloca %struct._GHashTableIter, align 8
  %6 = alloca ptr, align 8
  %7 = alloca ptr, align 8
  call void @llvm.lifetime.start.p0(i64 40, ptr nonnull %5) #8
  call void @llvm.lifetime.start.p0(i64 8, ptr nonnull %6) #8
  call void @llvm.lifetime.start.p0(i64 8, ptr nonnull %7) #8
  call void @g_hash_table_iter_init(ptr noundef nonnull %5, ptr noundef %2) #8
  %8 = call i32 @g_hash_table_iter_next(ptr noundef nonnull %5, ptr noundef nonnull %6, ptr noundef nonnull %7) #8
  %.not4 = icmp eq i32 %8, 0
  br i1 %.not4, label %._crit_edge, label %.lr.ph

.lr.ph:                                           ; preds = %3
  %9 = getelementptr inbounds nuw i8, ptr %4, i64 8
  %10 = getelementptr inbounds nuw i8, ptr %4, i64 16
  %11 = getelementptr inbounds nuw i8, ptr %4, i64 24
  %12 = getelementptr inbounds nuw i8, ptr %4, i64 20
  %13 = getelementptr inbounds nuw i8, ptr %4, i64 28
  %14 = getelementptr inbounds nuw i8, ptr %4, i64 4
  br label %15

15:                                               ; preds = %.lr.ph, %draw_box.exit
  %16 = load ptr, ptr %7, align 8, !tbaa !35
  %.sroa.0.0.copyload = load i64, ptr %16, align 1
  %.sroa.4.0..sroa_idx = getelementptr inbounds nuw i8, ptr %16, i64 8
  %.sroa.4.0.copyload = load float, ptr %.sroa.4.0..sroa_idx, align 1
  %.sroa.5.0..sroa_idx = getelementptr inbounds nuw i8, ptr %16, i64 12
  %.sroa.5.0.copyload = load float, ptr %.sroa.5.0..sroa_idx, align 1
  call void @llvm.lifetime.start.p0(i64 32, ptr nonnull %4) #8
  store i64 %.sroa.0.0.copyload, ptr %11, align 8
  store i64 %.sroa.0.0.copyload, ptr %9, align 8
  store i64 %.sroa.0.0.copyload, ptr %4, align 16
  %17 = trunc i64 %.sroa.0.0.copyload to i32
  %18 = bitcast i32 %17 to float
  %19 = fadd reassoc nsz arcp contract afn float %.sroa.4.0.copyload, %18
  store float %19, ptr %9, align 8, !tbaa !14
  store float %19, ptr %10, align 16, !tbaa !14
  %20 = lshr i64 %.sroa.0.0.copyload, 32
  %21 = trunc nuw i64 %20 to i32
  %22 = bitcast i32 %21 to float
  %23 = fadd reassoc nsz arcp contract afn float %.sroa.5.0.copyload, %22
  store float %23, ptr %12, align 4, !tbaa !16
  store float %23, ptr %13, align 4, !tbaa !16
  br label %29

24:                                               ; preds = %29
  %25 = load float, ptr %4, align 16, !tbaa !14
  %26 = fpext reassoc nsz arcp contract afn float %25 to double
  %27 = load float, ptr %14, align 4, !tbaa !16
  %28 = fpext reassoc nsz arcp contract afn float %27 to double
  call void @cairo_move_to(ptr noundef %0, double noundef %26, double noundef %28) #8
  br label %33

29:                                               ; preds = %29, %15
  %indvars.iv.i = phi i64 [ 0, %15 ], [ %indvars.iv.next.i, %29 ]
  %30 = getelementptr inbounds nuw [4 x %struct.point_t], ptr %4, i64 0, i64 %indvars.iv.i
  %31 = load <2 x float>, ptr %30, align 8
  %32 = call reassoc nsz arcp contract afn <2 x float> @apply_homography(<2 x float> %31, ptr noundef %1) #8
  store <2 x float> %32, ptr %30, align 8
  %indvars.iv.next.i = add nuw nsw i64 %indvars.iv.i, 1
  %exitcond.not.i = icmp eq i64 %indvars.iv.next.i, 4
  br i1 %exitcond.not.i, label %24, label %29

33:                                               ; preds = %33, %24
  %indvars.iv15.i = phi i64 [ 1, %24 ], [ %indvars.iv.next16.i, %33 ]
  %34 = getelementptr inbounds nuw [4 x %struct.point_t], ptr %4, i64 0, i64 %indvars.iv15.i
  %.sroa.0.0.copyload.i = load float, ptr %34, align 8, !tbaa !17
  %.sroa.4.0..sroa_idx.i = getelementptr inbounds nuw i8, ptr %34, i64 4
  %.sroa.4.0.copyload.i = load float, ptr %.sroa.4.0..sroa_idx.i, align 4, !tbaa !17
  %35 = fpext reassoc nsz arcp contract afn float %.sroa.0.0.copyload.i to double
  %36 = fpext reassoc nsz arcp contract afn float %.sroa.4.0.copyload.i to double
  call void @cairo_line_to(ptr noundef %0, double noundef %35, double noundef %36) #8
  %indvars.iv.next16.i = add nuw nsw i64 %indvars.iv15.i, 1
  %exitcond18.not.i = icmp eq i64 %indvars.iv.next16.i, 4
  br i1 %exitcond18.not.i, label %draw_box.exit, label %33

draw_box.exit:                                    ; preds = %33
  call void @cairo_close_path(ptr noundef %0) #8
  call void @llvm.lifetime.end.p0(i64 32, ptr nonnull %4) #8
  %37 = call i32 @g_hash_table_iter_next(ptr noundef nonnull %5, ptr noundef nonnull %6, ptr noundef nonnull %7) #8
  %.not = icmp eq i32 %37, 0
  br i1 %.not, label %._crit_edge, label %15

._crit_edge:                                      ; preds = %draw_box.exit, %3
  call void @llvm.lifetime.end.p0(i64 8, ptr nonnull %7) #8
  call void @llvm.lifetime.end.p0(i64 8, ptr nonnull %6) #8
  call void @llvm.lifetime.end.p0(i64 40, ptr nonnull %5) #8
  ret void
}